; Function Attrs: uwtable
define hidden void @_ZThn16_N4cvc58internal4prop11TheoryProxy16notifySatLiteralENS0_12NodeTemplateILb1EEE(ptr noundef readonly captures(none) %0, ptr noundef readonly captures(none) %1) unnamed_addr #14 align 2 personality ptr @__gxx_personality_v0 {
  %3 = alloca %"class.cvc5::internal::NodeTemplate.479", align 8
  call void @llvm.lifetime.start.p0(i64 8, ptr nonnull %3)
  %4 = getelementptr inbounds nuw i8, ptr %0, i64 448
  %5 = load ptr, ptr %4, align 8, !tbaa !337
  %6 = load ptr, ptr %1, align 8, !tbaa !379
  store ptr %6, ptr %3, align 8, !tbaa !383
  call void @_ZN4cvc58internal4prop18TheoryPreregistrar16notifySatLiteralENS0_12NodeTemplateILb0EEE(ptr noundef nonnull align 8 dereferenceable(56) %5, ptr noundef nonnull %3)
  call void @llvm.lifetime.end.p0(i64 8, ptr nonnull %3)
  ret void
}